target datalayout = "e-m:e-p270:32:32-p271:32:32-p272:64:64-i64:64-i128:128-f80:128-n8:16:32:64-S128"
target triple = "x86_64-pc-linux-gnu"

%struct.AVRational = type { i32, i32 }
%struct.AVStream = type { ptr, i32, i32, ptr, ptr, %struct.AVRational, i64, i64, i64, i32, i32, %struct.AVRational, ptr, %struct.AVRational, %struct.AVPacket, i32, %struct.AVRational, i32 }
%struct.AVPacket = type { ptr, i64, i64, ptr, i32, i32, i32, ptr, i32, i64, i64, ptr, ptr, %struct.AVRational }
%struct.AVCodecParameters = type { i32, i32, i32, ptr, i32, ptr, i32, i32, i64, i32, i32, i32, i32, i32, i32, %struct.AVRational, %struct.AVRational, i32, i32, i32, i32, i32, i32, i32, %struct.AVChannelLayout, i32, i32, i32, i32, i32, i32 }
%struct.AVChannelLayout = type { i32, i32, %union.anon, ptr }
%union.anon = type { i64 }

; Function Attrs: nounwind uwtable
define internal void @read_index(ptr noundef %0, ptr noundef %1) #0 {
  %3 = alloca ptr, align 8
  %4 = alloca ptr, align 8
  %5 = alloca i64, align 8
  %6 = alloca i32, align 4
  %7 = alloca i32, align 4
  %8 = alloca i32, align 4
  %9 = alloca i32, align 4
  store ptr %0, ptr %3, align 8, !tbaa !34
  store ptr %1, ptr %4, align 8, !tbaa !35
  call void @llvm.lifetime.start.p0(i64 8, ptr %5) #10
  store i64 0, ptr %5, align 8, !tbaa !59
  call void @llvm.lifetime.start.p0(i64 4, ptr %6) #10
  store i32 0, ptr %6, align 4, !tbaa !37
  br label %10

10:                                               ; preds = %62, %2
  %11 = load i32, ptr %6, align 4, !tbaa !37
  %12 = sext i32 %11 to i64
  %13 = load ptr, ptr %4, align 8, !tbaa !35
  %14 = getelementptr inbounds nuw %struct.AVStream, ptr %13, i32 0, i32 8
  %15 = load i64, ptr %14, align 8, !tbaa !51
  %16 = icmp slt i64 %12, %15
  br i1 %16, label %17, label %65

17:                                               ; preds = %10
  call void @llvm.lifetime.start.p0(i64 4, ptr %7) #10
  %18 = load ptr, ptr %3, align 8, !tbaa !34
  %19 = call i32 @avio_rb32(ptr noundef %18)
  store i32 %19, ptr %7, align 4, !tbaa !37
  call void @llvm.lifetime.start.p0(i64 4, ptr %8) #10
  %20 = load ptr, ptr %3, align 8, !tbaa !34
  %21 = call i32 @avio_rb32(ptr noundef %20)
  store i32 %21, ptr %8, align 4, !tbaa !37
  %22 = load ptr, ptr %3, align 8, !tbaa !34
  %23 = call i64 @avio_skip(ptr noundef %22, i64 noundef 8)
  %24 = load ptr, ptr %3, align 8, !tbaa !34
  %25 = call i32 @avio_feof(ptr noundef %24)
  %26 = icmp ne i32 %25, 0
  br i1 %26, label %27, label %28

27:                                               ; preds = %17
  store i32 1, ptr %9, align 4
  br label %59

28:                                               ; preds = %17
  %29 = load ptr, ptr %4, align 8, !tbaa !35
  %30 = load i32, ptr %7, align 4, !tbaa !37
  %31 = zext i32 %30 to i64
  %32 = load i64, ptr %5, align 8, !tbaa !59
  %33 = load i32, ptr %8, align 4, !tbaa !37
  %34 = call i32 @av_add_index_entry(ptr noundef %29, i64 noundef %31, i64 noundef %32, i32 noundef %33, i32 noundef 0, i32 noundef 1)
  %35 = load ptr, ptr %4, align 8, !tbaa !35
  %36 = getelementptr inbounds nuw %struct.AVStream, ptr %35, i32 0, i32 3
  %37 = load ptr, ptr %36, align 8, !tbaa !42
  %38 = getelementptr inbounds nuw %struct.AVCodecParameters, ptr %37, i32 0, i32 0
  %39 = load i32, ptr %38, align 8, !tbaa !48
  %40 = icmp eq i32 %39, 1
  br i1 %40, label %41, label %55

41:                                               ; preds = %28
  %42 = load i32, ptr %8, align 4, !tbaa !37
  %43 = zext i32 %42 to i64
  %44 = load ptr, ptr %4, align 8, !tbaa !35
  %45 = getelementptr inbounds nuw %struct.AVStream, ptr %44, i32 0, i32 3
  %46 = load ptr, ptr %45, align 8, !tbaa !42
  %47 = getelementptr inbounds nuw %struct.AVCodecParameters, ptr %46, i32 0, i32 24
  %48 = getelementptr inbounds nuw %struct.AVChannelLayout, ptr %47, i32 0, i32 1
  %49 = load i32, ptr %48, align 4, !tbaa !60
  %50 = sext i32 %49 to i64
  %51 = mul nsw i64 %50, 2
  %52 = sdiv i64 %43, %51
  %53 = load i64, ptr %5, align 8, !tbaa !59
  %54 = add i64 %53, %52
  store i64 %54, ptr %5, align 8, !tbaa !59
  br label %58

55:                                               ; preds = %28
  %56 = load i64, ptr %5, align 8, !tbaa !59
  %57 = add i64 %56, 1
  store i64 %57, ptr %5, align 8, !tbaa !59
  br label %58

58:                                               ; preds = %55, %41
  store i32 0, ptr %9, align 4
  br label %59

59:                                               ; preds = %58, %27
  call void @llvm.lifetime.end.p0(i64 4, ptr %8) #10
  call void @llvm.lifetime.end.p0(i64 4, ptr %7) #10
  %60 = load i32, ptr %9, align 4
  switch i32 %60, label %66 [
    i32 0, label %61
  ]

61:                                               ; preds = %59
  br label %62

62:                                               ; preds = %61
  %63 = load i32, ptr %6, align 4, !tbaa !37
  %64 = add nsw i32 %63, 1
  store i32 %64, ptr %6, align 4, !tbaa !37
  br label %10, !llvm.loop !108

65:                                               ; preds = %10
  store i32 0, ptr %9, align 4
  br label %66

66:                                               ; preds = %65, %59
  call void @llvm.lifetime.end.p0(i64 4, ptr %6) #10
  call void @llvm.lifetime.end.p0(i64 8, ptr %5) #10
  %67 = load i32, ptr %9, align 4
  switch i32 %67, label %69 [
    i32 0, label %68
    i32 1, label %68
  ]

68:                                               ; preds = %66, %66
  ret void

69:                                               ; preds = %66
  unreachable
}