; Function Attrs: nounwind uwtable
define internal fastcc void @read_index(ptr noundef %0, ptr noundef %1) unnamed_addr #1 {
  %3 = getelementptr inbounds nuw i8, ptr %1, i64 56
  %4 = load i64, ptr %3, align 8, !tbaa !39
  %5 = icmp sgt i64 %4, 0
  br i1 %5, label %.lr.ph, label %._crit_edge

.lr.ph:                                           ; preds = %2
  %6 = getelementptr inbounds nuw i8, ptr %1, i64 16
  br label %7

7:                                                ; preds = %.lr.ph, %25
  %indvars.iv = phi i64 [ 0, %.lr.ph ], [ %indvars.iv.next, %25 ]
  %.01621 = phi i64 [ 0, %.lr.ph ], [ %.2, %25 ]
  %8 = tail call i32 @avio_rb32(ptr noundef %0) #8
  %9 = tail call i32 @avio_rb32(ptr noundef %0) #8
  %10 = tail call i64 @avio_skip(ptr noundef %0, i64 noundef 8) #8
  %11 = tail call i32 @avio_feof(ptr noundef %0) #8
  %.not = icmp eq i32 %11, 0
  br i1 %.not, label %12, label %._crit_edge

12:                                               ; preds = %7
  %13 = zext i32 %8 to i64
  %14 = tail call i32 @av_add_index_entry(ptr noundef nonnull %1, i64 noundef %13, i64 noundef %.01621, i32 noundef %9, i32 noundef 0, i32 noundef 1) #8
  %15 = load ptr, ptr %6, align 8, !tbaa !28
  %16 = load i32, ptr %15, align 8, !tbaa !35
  %17 = icmp eq i32 %16, 1
  br i1 %17, label %18, label %25

18:                                               ; preds = %12
  %19 = zext i32 %9 to i64
  %20 = getelementptr inbounds nuw i8, ptr %15, i64 132
  %21 = load i32, ptr %20, align 4, !tbaa !49
  %22 = sext i32 %21 to i64
  %23 = shl nsw i64 %22, 1
  %24 = sdiv i64 %19, %23
  br label %25

25:                                               ; preds = %18, %12
  %.pn = phi i64 [ %24, %18 ], [ 1, %12 ]
  %.2 = add i64 %.pn, %.01621
  %indvars.iv.next = add nuw nsw i64 %indvars.iv, 1
  %26 = load i64, ptr %3, align 8, !tbaa !39
  %27 = icmp sgt i64 %26, %indvars.iv.next
  br i1 %27, label %7, label %._crit_edge, !llvm.loop !88

._crit_edge:                                      ; preds = %25, %7, %2
  ret void
}